; Function Attrs: nounwind uwtable
define range(i32 0, 2) i32 @minimalInitialFlip1(ptr noundef %0, i32 noundef %1) local_unnamed_addr #0 {
  %3 = tail call i32 @Kit_TruthWordNum_64bit(i32 noundef %1) #19
  %4 = sext i32 %3 to i64
  %5 = getelementptr i64, ptr %0, i64 %4
  %6 = getelementptr i8, ptr %5, i64 -8
  %7 = load i64, ptr %6, align 8, !tbaa !3
  %.not = icmp sgt i64 %7, -1
  br i1 %.not, label %9, label %8

8:                                                ; preds = %2
  tail call void @Kit_TruthNot_64bit(ptr noundef nonnull %0, i32 noundef %1) #19
  br label %9

9:                                                ; preds = %2, %8
  %.0 = phi i32 [ 1, %8 ], [ 0, %2 ]
  ret i32 %.0
}